; Function Attrs: nounwind uwtable
define range(i32 -173, 1) i32 @wolfSSL_CTX_only_dhe_psk(ptr noundef readonly captures(address_is_null) %0) local_unnamed_addr #0 {
  %2 = icmp eq ptr %0, null
  br i1 %2, label %7, label %3

3:                                                ; preds = %1
  %4 = load ptr, ptr %0, align 8, !tbaa !180
  %5 = load i16, ptr %4, align 1
  %6 = tail call i32 @IsAtLeastTLSv1_3(i16 %5) #11
  %.not = icmp eq i32 %6, 0
  %spec.select = select i1 %.not, i32 -173, i32 0
  br label %7

7:                                                ; preds = %3, %1
  %.0 = phi i32 [ -173, %1 ], [ %spec.select, %3 ]
  ret i32 %.0
}